target datalayout = "e-m:e-p270:32:32-p271:32:32-p272:64:64-i64:64-i128:128-f80:128-n8:16:32:64-S128"
target triple = "x86_64-pc-linux-gnu"

%struct.FunctionCallInfoBaseData = type { ptr, ptr, ptr, i32, i8, i16, [0 x %struct.NullableDatum] }
%struct.NullableDatum = type { i64, i8 }
%struct.JsonbInState = type { ptr, ptr, i8, ptr }
%struct.JsonbValue = type { i32, %union.anon }
%union.anon = type { %struct.anon.2 }
%struct.anon.2 = type { i32, ptr, i8 }
%struct.JsonbParseState = type { %struct.JsonbValue, i64, ptr, i8, i8 }
%struct.JsonbAggState = type { ptr, i32, i32, i32, i32 }

; Function Attrs: inlinehint nounwind uwtable
define internal i64 @PointerGetDatum(ptr noundef %0) #2 {
  %2 = alloca ptr, align 8
  store ptr %0, ptr %2, align 8
  %3 = load ptr, ptr %2, align 8
  %4 = ptrtoint ptr %3 to i64
  ret i64 %4
}

; Function Attrs: nounwind uwtable
define internal ptr @clone_parse_state(ptr noundef %0) #0 {
  %2 = alloca ptr, align 8
  %3 = alloca ptr, align 8
  %4 = alloca ptr, align 8
  %5 = alloca ptr, align 8
  %6 = alloca ptr, align 8
  %7 = alloca i32, align 4
  store ptr %0, ptr %3, align 8
  call void @llvm.lifetime.start.p0(i64 8, ptr %4) #8
  call void @llvm.lifetime.start.p0(i64 8, ptr %5) #8
  call void @llvm.lifetime.start.p0(i64 8, ptr %6) #8
  %8 = load ptr, ptr %3, align 8
  %9 = icmp eq ptr %8, null
  br i1 %9, label %10, label %11

10:                                               ; preds = %1
  store ptr null, ptr %2, align 8
  store i32 1, ptr %7, align 4
  br label %56

11:                                               ; preds = %1
  %12 = call ptr @palloc(i64 noundef 56)
  store ptr %12, ptr %4, align 8
  %13 = load ptr, ptr %3, align 8
  store ptr %13, ptr %5, align 8
  %14 = load ptr, ptr %4, align 8
  store ptr %14, ptr %6, align 8
  br label %15

15:                                               ; preds = %45, %11
  %16 = load ptr, ptr %6, align 8
  %17 = getelementptr inbounds nuw %struct.JsonbParseState, ptr %16, i32 0, i32 0
  %18 = load ptr, ptr %5, align 8
  %19 = getelementptr inbounds nuw %struct.JsonbParseState, ptr %18, i32 0, i32 0
  call void @llvm.memcpy.p0.p0.i64(ptr align 8 %17, ptr align 8 %19, i64 32, i1 false)
  %20 = load ptr, ptr %5, align 8
  %21 = getelementptr inbounds nuw %struct.JsonbParseState, ptr %20, i32 0, i32 1
  %22 = load i64, ptr %21, align 8
  %23 = load ptr, ptr %6, align 8
  %24 = getelementptr inbounds nuw %struct.JsonbParseState, ptr %23, i32 0, i32 1
  store i64 %22, ptr %24, align 8
  %25 = load ptr, ptr %5, align 8
  %26 = getelementptr inbounds nuw %struct.JsonbParseState, ptr %25, i32 0, i32 3
  %27 = load i8, ptr %26, align 8, !range !4, !noundef !5
  %28 = trunc i8 %27 to i1
  %29 = load ptr, ptr %6, align 8
  %30 = getelementptr inbounds nuw %struct.JsonbParseState, ptr %29, i32 0, i32 3
  %31 = zext i1 %28 to i8
  store i8 %31, ptr %30, align 8
  %32 = load ptr, ptr %5, align 8
  %33 = getelementptr inbounds nuw %struct.JsonbParseState, ptr %32, i32 0, i32 4
  %34 = load i8, ptr %33, align 1, !range !4, !noundef !5
  %35 = trunc i8 %34 to i1
  %36 = load ptr, ptr %6, align 8
  %37 = getelementptr inbounds nuw %struct.JsonbParseState, ptr %36, i32 0, i32 4
  %38 = zext i1 %35 to i8
  store i8 %38, ptr %37, align 1
  %39 = load ptr, ptr %5, align 8
  %40 = getelementptr inbounds nuw %struct.JsonbParseState, ptr %39, i32 0, i32 2
  %41 = load ptr, ptr %40, align 8
  store ptr %41, ptr %5, align 8
  %42 = load ptr, ptr %5, align 8
  %43 = icmp eq ptr %42, null
  br i1 %43, label %44, label %45

44:                                               ; preds = %15
  br label %52

45:                                               ; preds = %15
  %46 = call ptr @palloc(i64 noundef 56)
  %47 = load ptr, ptr %6, align 8
  %48 = getelementptr inbounds nuw %struct.JsonbParseState, ptr %47, i32 0, i32 2
  store ptr %46, ptr %48, align 8
  %49 = load ptr, ptr %6, align 8
  %50 = getelementptr inbounds nuw %struct.JsonbParseState, ptr %49, i32 0, i32 2
  %51 = load ptr, ptr %50, align 8
  store ptr %51, ptr %6, align 8
  br label %15

52:                                               ; preds = %44
  %53 = load ptr, ptr %6, align 8
  %54 = getelementptr inbounds nuw %struct.JsonbParseState, ptr %53, i32 0, i32 2
  store ptr null, ptr %54, align 8
  %55 = load ptr, ptr %4, align 8
  store ptr %55, ptr %2, align 8
  store i32 1, ptr %7, align 4
  br label %56

56:                                               ; preds = %52, %10
  call void @llvm.lifetime.end.p0(i64 8, ptr %6) #8
  call void @llvm.lifetime.end.p0(i64 8, ptr %5) #8
  call void @llvm.lifetime.end.p0(i64 8, ptr %4) #8
  %57 = load ptr, ptr %2, align 8
  ret ptr %57
}

; Function Attrs: inlinehint nounwind uwtable
define internal ptr @DatumGetPointer(i64 noundef %0) #2 {
  %2 = alloca i64, align 8
  store i64 %0, ptr %2, align 8
  %3 = load i64, ptr %2, align 8
  %4 = inttoptr i64 %3 to ptr
  ret ptr %4
}

; Function Attrs: nounwind uwtable
define dso_local i64 @jsonb_object_agg_finalfn(ptr noundef %0) #0 {
  %2 = alloca i64, align 8
  %3 = alloca ptr, align 8
  %4 = alloca ptr, align 8
  %5 = alloca %struct.JsonbInState, align 8
  %6 = alloca ptr, align 8
  %7 = alloca i32, align 4
  store ptr %0, ptr %3, align 8
  call void @llvm.lifetime.start.p0(i64 8, ptr %4) #8
  call void @llvm.lifetime.start.p0(i64 32, ptr %5) #8
  call void @llvm.lifetime.start.p0(i64 8, ptr %6) #8
  %8 = load ptr, ptr %3, align 8
  %9 = getelementptr inbounds nuw %struct.FunctionCallInfoBaseData, ptr %8, i32 0, i32 6
  %10 = getelementptr inbounds [0 x %struct.NullableDatum], ptr %9, i64 0, i64 0
  %11 = getelementptr inbounds nuw %struct.NullableDatum, ptr %10, i32 0, i32 1
  %12 = load i8, ptr %11, align 8, !range !4, !noundef !5
  %13 = trunc i8 %12 to i1
  br i1 %13, label %14, label %20

14:                                               ; preds = %1
  br label %15

15:                                               ; preds = %14
  %16 = load ptr, ptr %3, align 8
  %17 = getelementptr inbounds nuw %struct.FunctionCallInfoBaseData, ptr %16, i32 0, i32 4
  store i8 1, ptr %17, align 4
  store i64 0, ptr %2, align 8
  store i32 1, ptr %7, align 4
  br label %42

18:                                               ; No predecessors!
  br label %19

19:                                               ; preds = %18
  br label %20

20:                                               ; preds = %19, %1
  %21 = load ptr, ptr %3, align 8
  %22 = getelementptr inbounds nuw %struct.FunctionCallInfoBaseData, ptr %21, i32 0, i32 6
  %23 = getelementptr inbounds [0 x %struct.NullableDatum], ptr %22, i64 0, i64 0
  %24 = getelementptr inbounds nuw %struct.NullableDatum, ptr %23, i32 0, i32 0
  %25 = load i64, ptr %24, align 8
  %26 = call ptr @DatumGetPointer(i64 noundef %25)
  store ptr %26, ptr %4, align 8
  call void @llvm.memset.p0.i64(ptr align 8 %5, i8 0, i64 32, i1 false)
  %27 = load ptr, ptr %4, align 8
  %28 = getelementptr inbounds nuw %struct.JsonbAggState, ptr %27, i32 0, i32 0
  %29 = load ptr, ptr %28, align 8
  %30 = getelementptr inbounds nuw %struct.JsonbInState, ptr %29, i32 0, i32 0
  %31 = load ptr, ptr %30, align 8
  %32 = call ptr @clone_parse_state(ptr noundef %31)
  %33 = getelementptr inbounds nuw %struct.JsonbInState, ptr %5, i32 0, i32 0
  store ptr %32, ptr %33, align 8
  %34 = getelementptr inbounds nuw %struct.JsonbInState, ptr %5, i32 0, i32 0
  %35 = call ptr @pushJsonbValue(ptr noundef %34, i32 noundef 7, ptr noundef null)
  %36 = getelementptr inbounds nuw %struct.JsonbInState, ptr %5, i32 0, i32 1
  store ptr %35, ptr %36, align 8
  %37 = getelementptr inbounds nuw %struct.JsonbInState, ptr %5, i32 0, i32 1
  %38 = load ptr, ptr %37, align 8
  %39 = call ptr @JsonbValueToJsonb(ptr noundef %38)
  store ptr %39, ptr %6, align 8
  %40 = load ptr, ptr %6, align 8
  %41 = call i64 @PointerGetDatum(ptr noundef %40)
  store i64 %41, ptr %2, align 8
  store i32 1, ptr %7, align 4
  br label %42

42:                                               ; preds = %20, %15
  call void @llvm.lifetime.end.p0(i64 8, ptr %6) #8
  call void @llvm.lifetime.end.p0(i64 32, ptr %5) #8
  call void @llvm.lifetime.end.p0(i64 8, ptr %4) #8
  %43 = load i64, ptr %2, align 8
  ret i64 %43
}